target datalayout = "e-m:e-p270:32:32-p271:32:32-p272:64:64-i64:64-i128:128-f80:128-n8:16:32:64-S128"
target triple = "x86_64-unknown-linux-gnu"

%struct.ObjectClass = type { ptr, ptr, [4 x ptr], [4 x ptr], ptr, ptr }
%struct.RdmaProviderClass = type { %struct.InterfaceClass, ptr }
%struct.InterfaceClass = type { %struct.ObjectClass, ptr, ptr }

@.str = private unnamed_addr constant [35 x i8] c"../qemu/hw/core/machine-qmp-cmds.c\00", align 1
@.str.28 = private unnamed_addr constant [5 x i8] c"rdma\00", align 1
@__func__.qmp_x_query_rdma_foreach = private unnamed_addr constant [25 x i8] c"qmp_x_query_rdma_foreach\00", align 1
@.str.29 = private unnamed_addr constant [39 x i8] c"RDMA statistics not available for %s.\0A\00", align 1
@.str.30 = private unnamed_addr constant [101 x i8] c"/home/dtcxzyw/WorkSpace/Projects/compilers/llvm-opt-benchmark/bench/qemu/qemu/include/hw/rdma/rdma.h\00", align 1
@__func__.RDMA_PROVIDER_GET_CLASS = private unnamed_addr constant [24 x i8] c"RDMA_PROVIDER_GET_CLASS\00", align 1

; Function Attrs: nounwind sspstrong uwtable
define internal ptr @RDMA_PROVIDER_GET_CLASS(ptr noundef %obj) #0 {
entry:
  %obj.addr = alloca ptr, align 8
  store ptr %obj, ptr %obj.addr, align 8
  %0 = load ptr, ptr %obj.addr, align 8
  %call = call ptr @object_get_class(ptr noundef %0)
  %call1 = call ptr @object_class_dynamic_cast_assert(ptr noundef %call, ptr noundef @.str.28, ptr noundef @.str.30, i32 noundef 24, ptr noundef @__func__.RDMA_PROVIDER_GET_CLASS)
  ret ptr %call1
}

; Function Attrs: nounwind sspstrong uwtable
define internal i32 @qmp_x_query_rdma_foreach(ptr noundef %obj, ptr noundef %opaque) #0 {
entry:
  %obj.addr = alloca ptr, align 8
  %opaque.addr = alloca ptr, align 8
  %rdma = alloca ptr, align 8
  %k = alloca ptr, align 8
  %buf = alloca ptr, align 8
  store ptr %obj, ptr %obj.addr, align 8
  store ptr %opaque, ptr %opaque.addr, align 8
  %0 = load ptr, ptr %opaque.addr, align 8
  store ptr %0, ptr %buf, align 8
  %1 = load ptr, ptr %obj.addr, align 8
  %call = call ptr @object_dynamic_cast(ptr noundef %1, ptr noundef @.str.28)
  %tobool = icmp ne ptr %call, null
  br i1 %tobool, label %if.then, label %if.end7

if.then:                                          ; preds = %entry
  %2 = load ptr, ptr %obj.addr, align 8
  %call1 = call ptr @object_dynamic_cast_assert(ptr noundef %2, ptr noundef @.str.28, ptr noundef @.str, i32 noundef 302, ptr noundef @__func__.qmp_x_query_rdma_foreach)
  store ptr %call1, ptr %rdma, align 8
  %3 = load ptr, ptr %obj.addr, align 8
  %call2 = call ptr @RDMA_PROVIDER_GET_CLASS(ptr noundef %3)
  store ptr %call2, ptr %k, align 8
  %4 = load ptr, ptr %k, align 8
  %format_statistics = getelementptr inbounds %struct.RdmaProviderClass, ptr %4, i32 0, i32 1
  %5 = load ptr, ptr %format_statistics, align 8
  %tobool3 = icmp ne ptr %5, null
  br i1 %tobool3, label %if.then4, label %if.else

if.then4:                                         ; preds = %if.then
  %6 = load ptr, ptr %k, align 8
  %format_statistics5 = getelementptr inbounds %struct.RdmaProviderClass, ptr %6, i32 0, i32 1
  %7 = load ptr, ptr %format_statistics5, align 8
  %8 = load ptr, ptr %rdma, align 8
  %9 = load ptr, ptr %buf, align 8
  call void %7(ptr noundef %8, ptr noundef %9)
  br label %if.end

if.else:                                          ; preds = %if.then
  %10 = load ptr, ptr %buf, align 8
  %11 = load ptr, ptr %obj.addr, align 8
  %call6 = call ptr @object_get_typename(ptr noundef %11)
  call void (ptr, ptr, ...) @g_string_append_printf(ptr noundef %10, ptr noundef @.str.29, ptr noundef %call6)
  br label %if.end

if.end:                                           ; preds = %if.else, %if.then4
  br label %if.end7

if.end7:                                          ; preds = %if.end, %entry
  ret i32 0
}