; Function Attrs: nounwind sspstrong uwtable
define internal noundef i32 @qmp_x_query_rdma_foreach(ptr noundef %obj, ptr noundef %opaque) #0 {
entry:
  %call = tail call ptr @object_dynamic_cast(ptr noundef %obj, ptr noundef nonnull @.str.28) #7
  %tobool.not = icmp eq ptr %call, null
  br i1 %tobool.not, label %if.end7, label %if.then

if.then:                                          ; preds = %entry
  %call1 = tail call ptr @object_dynamic_cast_assert(ptr noundef %obj, ptr noundef nonnull @.str.28, ptr noundef nonnull @.str, i32 noundef 302, ptr noundef nonnull @__func__.qmp_x_query_rdma_foreach) #7
  %call.i = tail call ptr @object_get_class(ptr noundef %obj) #7
  %call1.i = tail call ptr @object_class_dynamic_cast_assert(ptr noundef %call.i, ptr noundef nonnull @.str.28, ptr noundef nonnull @.str.30, i32 noundef 24, ptr noundef nonnull @__func__.RDMA_PROVIDER_GET_CLASS) #7
  %format_statistics = getelementptr inbounds nuw i8, ptr %call1.i, i64 112
  %0 = load ptr, ptr %format_statistics, align 8
  %tobool3.not = icmp eq ptr %0, null
  br i1 %tobool3.not, label %if.else, label %if.then4

if.then4:                                         ; preds = %if.then
  tail call void %0(ptr noundef %call1, ptr noundef %opaque) #7
  br label %if.end7

if.else:                                          ; preds = %if.then
  %call6 = tail call ptr @object_get_typename(ptr noundef %obj) #7
  tail call void (ptr, ptr, ...) @g_string_append_printf(ptr noundef %opaque, ptr noundef nonnull @.str.29, ptr noundef %call6) #7
  br label %if.end7

if.end7:                                          ; preds = %if.then4, %if.else, %entry
  ret i32 0
}